target datalayout = "e-m:e-p270:32:32-p271:32:32-p272:64:64-i64:64-i128:128-f80:128-n8:16:32:64-S128"
target triple = "x86_64-pc-linux-gnu"

%"struct.Luau::CodeGen::X64::RegisterX64" = type { i8 }

@_ZN4Luau7CodeGen3X64L5noregE = internal constant %"struct.Luau::CodeGen::X64::RegisterX64" { i8 -128 }, align 1

; Function Attrs: mustprogress nounwind uwtable
define linkonce_odr dso_local noundef zeroext i1 @_ZNK4Luau7CodeGen3X6411RegisterX64eqES2_(ptr noundef nonnull align 1 dereferenceable(1) %0, i8 %1) #1 comdat align 2 {
  %3 = alloca %"struct.Luau::CodeGen::X64::RegisterX64", align 1
  %4 = alloca ptr, align 8
  %5 = getelementptr inbounds %"struct.Luau::CodeGen::X64::RegisterX64", ptr %3, i32 0, i32 0
  store i8 %1, ptr %5, align 1
  store ptr %0, ptr %4, align 8
  %6 = load ptr, ptr %4, align 8
  %7 = load i8, ptr %6, align 1
  %8 = and i8 %7, 7
  %9 = load i8, ptr %3, align 1
  %10 = and i8 %9, 7
  %11 = icmp eq i8 %8, %10
  br i1 %11, label %12, label %20

12:                                               ; preds = %2
  %13 = load i8, ptr %6, align 1
  %14 = lshr i8 %13, 3
  %15 = zext i8 %14 to i32
  %16 = load i8, ptr %3, align 1
  %17 = lshr i8 %16, 3
  %18 = zext i8 %17 to i32
  %19 = icmp eq i32 %15, %18
  br label %20

20:                                               ; preds = %12, %2
  %21 = phi i1 [ false, %2 ], [ %19, %12 ]
  ret i1 %21
}

; Function Attrs: mustprogress uwtable
define dso_local noundef zeroext i1 @_ZNK4Luau7CodeGen3X6413IrRegAllocX6413shouldFreeGprENS1_11RegisterX64E(ptr noundef nonnull align 8 dereferenceable(256) %0, i8 %1) #0 align 2 {
  %3 = alloca i1, align 1
  %4 = alloca %"struct.Luau::CodeGen::X64::RegisterX64", align 1
  %5 = alloca ptr, align 8
  %6 = alloca %"struct.Luau::CodeGen::X64::RegisterX64", align 1
  %7 = alloca ptr, align 8
  %8 = alloca ptr, align 8
  %9 = alloca ptr, align 8
  %10 = alloca %"struct.Luau::CodeGen::X64::RegisterX64", align 1
  %11 = getelementptr inbounds %"struct.Luau::CodeGen::X64::RegisterX64", ptr %4, i32 0, i32 0
  store i8 %1, ptr %11, align 1
  store ptr %0, ptr %5, align 8
  call void @llvm.memcpy.p0.p0.i64(ptr align 1 %6, ptr align 1 @_ZN4Luau7CodeGen3X64L5noregE, i64 1, i1 false)
  %12 = getelementptr inbounds %"struct.Luau::CodeGen::X64::RegisterX64", ptr %6, i32 0, i32 0
  %13 = load i8, ptr %12, align 1
  %14 = call noundef zeroext i1 @_ZNK4Luau7CodeGen3X6411RegisterX64eqES2_(ptr noundef nonnull align 1 dereferenceable(1) %4, i8 %13)
  br i1 %14, label %15, label %16

15:                                               ; preds = %2
  store i1 false, ptr %3, align 1
  br label %36

16:                                               ; preds = %2
  store ptr @_ZN4Luau7CodeGen3X64L14kGprAllocOrderE, ptr %7, align 8
  store ptr @_ZN4Luau7CodeGen3X64L14kGprAllocOrderE, ptr %8, align 8
  store ptr getelementptr inbounds (%"struct.Luau::CodeGen::X64::RegisterX64", ptr @_ZN4Luau7CodeGen3X64L14kGprAllocOrderE, i64 10), ptr %9, align 8
  br label %17

17:                                               ; preds = %32, %16
  %18 = load ptr, ptr %8, align 8
  %19 = load ptr, ptr %9, align 8
  %20 = icmp ne ptr %18, %19
  br i1 %20, label %21, label %35

21:                                               ; preds = %17
  %22 = load ptr, ptr %8, align 8
  call void @llvm.memcpy.p0.p0.i64(ptr align 1 %10, ptr align 1 %22, i64 1, i1 false)
  %23 = load i8, ptr %4, align 1
  %24 = lshr i8 %23, 3
  %25 = zext i8 %24 to i32
  %26 = load i8, ptr %10, align 1
  %27 = lshr i8 %26, 3
  %28 = zext i8 %27 to i32
  %29 = icmp eq i32 %25, %28
  br i1 %29, label %30, label %31

30:                                               ; preds = %21
  store i1 true, ptr %3, align 1
  br label %36

31:                                               ; preds = %21
  br label %32

32:                                               ; preds = %31
  %33 = load ptr, ptr %8, align 8
  %34 = getelementptr inbounds %"struct.Luau::CodeGen::X64::RegisterX64", ptr %33, i32 1
  store ptr %34, ptr %8, align 8
  br label %17

35:                                               ; preds = %17
  store i1 false, ptr %3, align 1
  br label %36

36:                                               ; preds = %35, %30, %15
  %37 = load i1, ptr %3, align 1
  ret i1 %37
}