; Function Attrs: mustprogress nofree norecurse nosync nounwind willreturn memory(none) uwtable
define dso_local noundef zeroext i1 @_ZNK4Luau7CodeGen3X6413IrRegAllocX6413shouldFreeGprENS1_11RegisterX64E(ptr nocapture noundef nonnull readnone align 8 dereferenceable(256) %0, i8 %1) local_unnamed_addr #8 align 2 {
  %3 = icmp eq i8 %1, -128
  br i1 %3, label %.loopexit, label %.preheader

.preheader:                                       ; preds = %2, %.preheader
  %.06.idx8 = phi i64 [ %.06.add, %.preheader ], [ 0, %2 ]
  %.06.ptr = getelementptr inbounds i8, ptr @_ZN4Luau7CodeGen3X64L14kGprAllocOrderE, i64 %.06.idx8
  %.sroa.0.0.copyload = load i8, ptr %.06.ptr, align 1
  %.unshifted = xor i8 %.sroa.0.0.copyload, %1
  %4 = icmp ult i8 %.unshifted, 8
  %.06.add = add nuw nsw i64 %.06.idx8, 1
  %.not = icmp eq i64 %.06.add, 10
  %or.cond = select i1 %4, i1 true, i1 %.not
  br i1 %or.cond, label %.loopexit, label %.preheader

.loopexit:                                        ; preds = %.preheader, %2
  %.0 = phi i1 [ false, %2 ], [ %4, %.preheader ]
  ret i1 %.0
}